; ModuleID = '21/1534.c'
source_filename = "21/1534.c"
target datalayout = "e-m:e-p270:32:32-p271:32:32-p272:64:64-i64:64-f80:128-n8:16:32:64-S128"
target triple = "x86_64-pc-linux-gnu"

@.str = private unnamed_addr constant [3 x i8] c"%d\00", align 1
@.str.1 = private unnamed_addr constant [6 x i8] c"%d,%d\00", align 1

; Function Attrs: noinline nounwind uwtable
define dso_local void @main() #0 {
  %1 = alloca i32, align 4
  %2 = alloca i32, align 4
  %3 = alloca i32, align 4
  %4 = alloca i32, align 4
  %5 = alloca float, align 4
  %6 = alloca float, align 4
  %7 = alloca float, align 4
  %8 = alloca float, align 4
  %9 = alloca [300 x i32], align 16
  store float 0.000000e+00, float* %5, align 4
  %10 = call i32 (i8*, ...) @__isoc99_scanf(i8* getelementptr inbounds ([3 x i8], [3 x i8]* @.str, i64 0, i64 0), i32* %1)
  store i32 0, i32* %2, align 4
  br label %11

11:                                               ; preds = %20, %0
  %12 = load i32, i32* %2, align 4
  %13 = load i32, i32* %1, align 4
  %14 = icmp slt i32 %12, %13
  br i1 %14, label %15, label %23

15:                                               ; preds = %11
  %16 = load i32, i32* %2, align 4
  %17 = sext i32 %16 to i64
  %18 = getelementptr inbounds [300 x i32], [300 x i32]* %9, i64 0, i64 %17
  %19 = call i32 (i8*, ...) @__isoc99_scanf(i8* getelementptr inbounds ([3 x i8], [3 x i8]* @.str, i64 0, i64 0), i32* %18)
  br label %20

20:                                               ; preds = %15
  %21 = load i32, i32* %2, align 4
  %22 = add nsw i32 %21, 1
  store i32 %22, i32* %2, align 4
  br label %11

23:                                               ; preds = %11
  store i32 0, i32* %2, align 4
  br label %24

24:                                               ; preds = %36, %23
  %25 = load i32, i32* %2, align 4
  %26 = load i32, i32* %1, align 4
  %27 = icmp slt i32 %25, %26
  br i1 %27, label %28, label %39

28:                                               ; preds = %24
  %29 = load float, float* %5, align 4
  %30 = load i32, i32* %2, align 4
  %31 = sext i32 %30 to i64
  %32 = getelementptr inbounds [300 x i32], [300 x i32]* %9, i64 0, i64 %31
  %33 = load i32, i32* %32, align 4
  %34 = sitofp i32 %33 to float
  %35 = fadd float %29, %34
  store float %35, float* %5, align 4
  br label %36

36:                                               ; preds = %28
  %37 = load i32, i32* %2, align 4
  %38 = add nsw i32 %37, 1
  store i32 %38, i32* %2, align 4
  br label %24

39:                                               ; preds = %24
  %40 = load float, float* %5, align 4
  %41 = load i32, i32* %1, align 4
  %42 = sitofp i32 %41 to float
  %43 = fdiv float %40, %42
  store float %43, float* %6, align 4
  store i32 0, i32* %3, align 4
  br label %44

44:                                               ; preds = %91, %39
  %45 = load i32, i32* %3, align 4
  %46 = load i32, i32* %1, align 4
  %47 = sub nsw i32 %46, 1
  %48 = icmp slt i32 %45, %47
  br i1 %48, label %49, label %94

49:                                               ; preds = %44
  store i32 0, i32* %2, align 4
  br label %50

50:                                               ; preds = %87, %49
  %51 = load i32, i32* %2, align 4
  %52 = load i32, i32* %1, align 4
  %53 = sub nsw i32 %52, 1
  %54 = load i32, i32* %3, align 4
  %55 = sub nsw i32 %53, %54
  %56 = icmp slt i32 %51, %55
  br i1 %56, label %57, label %90

57:                                               ; preds = %50
  %58 = load i32, i32* %2, align 4
  %59 = sext i32 %58 to i64
  %60 = getelementptr inbounds [300 x i32], [300 x i32]* %9, i64 0, i64 %59
  %61 = load i32, i32* %60, align 4
  %62 = load i32, i32* %2, align 4
  %63 = add nsw i32 %62, 1
  %64 = sext i32 %63 to i64
  %65 = getelementptr inbounds [300 x i32], [300 x i32]* %9, i64 0, i64 %64
  %66 = load i32, i32* %65, align 4
  %67 = icmp sgt i32 %61, %66
  br i1 %67, label %68, label %86

68:                                               ; preds = %57
  %69 = load i32, i32* %2, align 4
  %70 = sext i32 %69 to i64
  %71 = getelementptr inbounds [300 x i32], [300 x i32]* %9, i64 0, i64 %70
  %72 = load i32, i32* %71, align 4
  store i32 %72, i32* %4, align 4
  %73 = load i32, i32* %2, align 4
  %74 = add nsw i32 %73, 1
  %75 = sext i32 %74 to i64
  %76 = getelementptr inbounds [300 x i32], [300 x i32]* %9, i64 0, i64 %75
  %77 = load i32, i32* %76, align 4
  %78 = load i32, i32* %2, align 4
  %79 = sext i32 %78 to i64
  %80 = getelementptr inbounds [300 x i32], [300 x i32]* %9, i64 0, i64 %79
  store i32 %77, i32* %80, align 4
  %81 = load i32, i32* %4, align 4
  %82 = load i32, i32* %2, align 4
  %83 = add nsw i32 %82, 1
  %84 = sext i32 %83 to i64
  %85 = getelementptr inbounds [300 x i32], [300 x i32]* %9, i64 0, i64 %84
  store i32 %81, i32* %85, align 4
  br label %86

86:                                               ; preds = %68, %57
  br label %87

87:                                               ; preds = %86
  %88 = load i32, i32* %2, align 4
  %89 = add nsw i32 %88, 1
  store i32 %89, i32* %2, align 4
  br label %50

90:                                               ; preds = %50
  br label %91

91:                                               ; preds = %90
  %92 = load i32, i32* %3, align 4
  %93 = add nsw i32 %92, 1
  store i32 %93, i32* %3, align 4
  br label %44

94:                                               ; preds = %44
  %95 = load float, float* %6, align 4
  %96 = getelementptr inbounds [300 x i32], [300 x i32]* %9, i64 0, i64 0
  %97 = load i32, i32* %96, align 16
  %98 = sitofp i32 %97 to float
  %99 = fsub float %95, %98
  store float %99, float* %7, align 4
  %100 = load i32, i32* %1, align 4
  %101 = sub nsw i32 %100, 1
  %102 = sext i32 %101 to i64
  %103 = getelementptr inbounds [300 x i32], [300 x i32]* %9, i64 0, i64 %102
  %104 = load i32, i32* %103, align 4
  %105 = sitofp i32 %104 to float
  %106 = load float, float* %6, align 4
  %107 = fsub float %105, %106
  store float %107, float* %8, align 4
  %108 = load float, float* %7, align 4
  %109 = load float, float* %8, align 4
  %110 = fcmp oeq float %108, %109
  br i1 %110, label %111, label %120

111:                                              ; preds = %94
  %112 = getelementptr inbounds [300 x i32], [300 x i32]* %9, i64 0, i64 0
  %113 = load i32, i32* %112, align 16
  %114 = load i32, i32* %1, align 4
  %115 = sub nsw i32 %114, 1
  %116 = sext i32 %115 to i64
  %117 = getelementptr inbounds [300 x i32], [300 x i32]* %9, i64 0, i64 %116
  %118 = load i32, i32* %117, align 4
  %119 = call i32 (i8*, ...) @printf(i8* getelementptr inbounds ([6 x i8], [6 x i8]* @.str.1, i64 0, i64 0), i32 %113, i32 %118)
  br label %136

120:                                              ; preds = %94
  %121 = load float, float* %7, align 4
  %122 = load float, float* %8, align 4
  %123 = fcmp olt float %121, %122
  br i1 %123, label %124, label %131

124:                                              ; preds = %120
  %125 = load i32, i32* %1, align 4
  %126 = sub nsw i32 %125, 1
  %127 = sext i32 %126 to i64
  %128 = getelementptr inbounds [300 x i32], [300 x i32]* %9, i64 0, i64 %127
  %129 = load i32, i32* %128, align 4
  %130 = call i32 (i8*, ...) @printf(i8* getelementptr inbounds ([3 x i8], [3 x i8]* @.str, i64 0, i64 0), i32 %129)
  br label %135

131:                                              ; preds = %120
  %132 = getelementptr inbounds [300 x i32], [300 x i32]* %9, i64 0, i64 0
  %133 = load i32, i32* %132, align 16
  %134 = call i32 (i8*, ...) @printf(i8* getelementptr inbounds ([3 x i8], [3 x i8]* @.str, i64 0, i64 0), i32 %133)
  br label %135

135:                                              ; preds = %131, %124
  br label %136

136:                                              ; preds = %135, %111
  ret void
}

declare dso_local i32 @__isoc99_scanf(i8*, ...) #1

declare dso_local i32 @printf(i8*, ...) #1


!llvm.module.flags = !{!0}
!llvm.ident = !{!1}

!0 = !{i32 1, !"wchar_size", i32 4}
!1 = !{!"clang version 10.0.0-4ubuntu1 "}
